target datalayout = "e-m:e-p270:32:32-p271:32:32-p272:64:64-i64:64-i128:128-f80:128-n8:16:32:64-S128"
target triple = "x86_64-pc-linux-gnu"

%"class.std::__shared_count" = type { ptr }
%"class.std::__cxx11::basic_string" = type { %"struct.std::__cxx11::basic_string<char>::_Alloc_hider", i64, %union.anon }
%"struct.std::__cxx11::basic_string<char>::_Alloc_hider" = type { ptr }
%union.anon = type { i64, [8 x i8] }
%"class.gmx::ExceptionInitializer" = type { %"class.std::__cxx11::basic_string", %"class.std::vector.49" }
%"class.std::vector.49" = type { %"struct.std::_Vector_base.50" }
%"struct.std::_Vector_base.50" = type { %"struct.std::_Vector_base<std::__exception_ptr::exception_ptr, std::allocator<std::__exception_ptr::exception_ptr>>::_Vector_impl" }
%"struct.std::_Vector_base<std::__exception_ptr::exception_ptr, std::allocator<std::__exception_ptr::exception_ptr>>::_Vector_impl" = type { %"struct.std::_Vector_base<std::__exception_ptr::exception_ptr, std::allocator<std::__exception_ptr::exception_ptr>>::_Vector_impl_data" }
%"struct.std::_Vector_base<std::__exception_ptr::exception_ptr, std::allocator<std::__exception_ptr::exception_ptr>>::_Vector_impl_data" = type { ptr, ptr, ptr }
%"struct.gmx::SelectionTopologyProperties" = type { i8, i8 }
%"class.gmx::InconsistentInputError" = type { %"class.gmx::UserInputError" }
%"class.gmx::UserInputError" = type { %"class.gmx::GromacsException" }
%"class.gmx::GromacsException" = type { %"class.std::exception", %"class.std::shared_ptr.155" }
%"class.std::exception" = type { ptr }
%"class.std::shared_ptr.155" = type { %"class.std::__shared_ptr.156" }
%"class.std::__shared_ptr.156" = type { ptr, %"class.std::__shared_count" }
%"class.gmx::ExceptionInfo" = type { %"class.gmx::internal::IExceptionInfo", %"struct.gmx::ThrowLocation" }
%"class.gmx::internal::IExceptionInfo" = type { ptr }
%"struct.gmx::ThrowLocation" = type <{ ptr, ptr, i32, [4 x i8] }>

@.str.1 = private unnamed_addr constant [139 x i8] c"generated/home/dtcxzyw/WorkSpace/Projects/compilers/llvm-opt-benchmark/bench/gromacs/gromacs/src/gromacs/selection/selectioncollection.cpp\00", align 1
@_ZTIN3gmx22InconsistentInputErrorE = external constant ptr
@.str.24 = private unnamed_addr constant [59 x i8] c"Selection requires topology information, but none provided\00", align 1
@__PRETTY_FUNCTION__._ZN3gmx12_GLOBAL__N_123checkTopologyPropertiesEPK10gmx_mtop_tRKNS_27SelectionTopologyPropertiesE = private unnamed_addr constant [114 x i8] c"void gmx::(anonymous namespace)::checkTopologyProperties(const gmx_mtop_t *, const SelectionTopologyProperties &)\00", align 1
@.str.25 = private unnamed_addr constant [77 x i8] c"Selection requires mass information, but it is not available in the topology\00", align 1
@_ZTVN3gmx8internal14IExceptionInfoE = external unnamed_addr constant { [4 x ptr] }, align 8
@_ZTVN3gmx22InconsistentInputErrorE = external unnamed_addr constant { [6 x ptr] }, align 8
@_ZTVN3gmx14UserInputErrorE = linkonce_odr unnamed_addr constant { [6 x ptr] } { [6 x ptr] [ptr null, ptr @_ZTIN3gmx14UserInputErrorE, ptr @_ZN3gmx14UserInputErrorD2Ev, ptr @_ZN3gmx14UserInputErrorD0Ev, ptr @_ZNK3gmx16GromacsException4whatEv, ptr @__cxa_pure_virtual] }, comdat, align 8

; Function Attrs: mustprogress nounwind uwtable
define linkonce_odr void @_ZN3gmx8internal14IExceptionInfoC2Ev(ptr noundef nonnull align 8 dereferenceable(8) %0) unnamed_addr #3 comdat align 2 {
  %2 = alloca ptr, align 8
  store ptr %0, ptr %2, align 8
  %3 = load ptr, ptr %2, align 8
  store ptr getelementptr inbounds inrange(-16, 16) ({ [4 x ptr] }, ptr @_ZTVN3gmx8internal14IExceptionInfoE, i32 0, i32 0, i32 2), ptr %3, align 8
  ret void
}

; Function Attrs: mustprogress uwtable
define linkonce_odr void @_ZN3gmx14UserInputErrorC2ERKNS_20ExceptionInitializerE(ptr noundef nonnull align 8 dereferenceable(24) %0, ptr noundef nonnull align 8 dereferenceable(56) %1) unnamed_addr #0 comdat align 2 {
  %3 = alloca ptr, align 8
  %4 = alloca ptr, align 8
  store ptr %0, ptr %3, align 8
  store ptr %1, ptr %4, align 8
  %5 = load ptr, ptr %3, align 8
  %6 = load ptr, ptr %4, align 8
  call void @_ZN3gmx16GromacsExceptionC2ERKNS_20ExceptionInitializerE(ptr noundef nonnull align 8 dereferenceable(24) %5, ptr noundef nonnull align 8 dereferenceable(56) %6)
  store ptr getelementptr inbounds inrange(-16, 32) ({ [6 x ptr] }, ptr @_ZTVN3gmx14UserInputErrorE, i32 0, i32 0, i32 2), ptr %5, align 8
  ret void
}

; Function Attrs: mustprogress nounwind uwtable
define linkonce_odr void @_ZN3gmx13ExceptionInfoINS_22ExceptionInfoLocation_ENS_13ThrowLocationEED2Ev(ptr noundef nonnull align 8 dereferenceable(32) %0) unnamed_addr #3 comdat align 2 {
  %2 = alloca ptr, align 8
  store ptr %0, ptr %2, align 8
  %3 = load ptr, ptr %2, align 8
  call void @_ZN3gmx8internal14IExceptionInfoD2Ev(ptr noundef nonnull align 8 dereferenceable(8) %3) #14
  ret void
}

; Function Attrs: mustprogress nounwind uwtable
define linkonce_odr void @_ZN3gmx13ExceptionInfoINS_22ExceptionInfoLocation_ENS_13ThrowLocationEEC2ERKS2_(ptr noundef nonnull align 8 dereferenceable(32) %0, ptr noundef nonnull align 8 dereferenceable(20) %1) unnamed_addr #3 comdat align 2 {
  %3 = alloca ptr, align 8
  %4 = alloca ptr, align 8
  store ptr %0, ptr %3, align 8
  store ptr %1, ptr %4, align 8
  %5 = load ptr, ptr %3, align 8
  call void @_ZN3gmx8internal14IExceptionInfoC2Ev(ptr noundef nonnull align 8 dereferenceable(8) %5) #14
  store ptr getelementptr inbounds inrange(-16, 16) ({ [4 x ptr] }, ptr @_ZTVN3gmx13ExceptionInfoINS_22ExceptionInfoLocation_ENS_13ThrowLocationEEE, i32 0, i32 0, i32 2), ptr %5, align 8
  %6 = getelementptr inbounds %"class.gmx::ExceptionInfo", ptr %5, i32 0, i32 1
  %7 = load ptr, ptr %4, align 8
  call void @llvm.memcpy.p0.p0.i64(ptr align 8 %6, ptr align 8 %7, i64 24, i1 false)
  ret void
}

; Function Attrs: mustprogress nounwind uwtable
define linkonce_odr void @_ZN3gmx13ThrowLocationC2EPKcS2_i(ptr noundef nonnull align 8 dereferenceable(20) %0, ptr noundef %1, ptr noundef %2, i32 noundef %3) unnamed_addr #3 comdat align 2 {
  %5 = alloca ptr, align 8
  %6 = alloca ptr, align 8
  %7 = alloca ptr, align 8
  %8 = alloca i32, align 4
  store ptr %0, ptr %5, align 8
  store ptr %1, ptr %6, align 8
  store ptr %2, ptr %7, align 8
  store i32 %3, ptr %8, align 4
  %9 = load ptr, ptr %5, align 8
  %10 = getelementptr inbounds %"struct.gmx::ThrowLocation", ptr %9, i32 0, i32 0
  %11 = load ptr, ptr %6, align 8
  store ptr %11, ptr %10, align 8
  %12 = getelementptr inbounds %"struct.gmx::ThrowLocation", ptr %9, i32 0, i32 1
  %13 = load ptr, ptr %7, align 8
  store ptr %13, ptr %12, align 8
  %14 = getelementptr inbounds %"struct.gmx::ThrowLocation", ptr %9, i32 0, i32 2
  %15 = load i32, ptr %8, align 4
  store i32 %15, ptr %14, align 8
  ret void
}

; Function Attrs: mustprogress uwtable
define linkonce_odr void @_ZN3gmx22InconsistentInputErrorC2ERKNS_20ExceptionInitializerE(ptr noundef nonnull align 8 dereferenceable(24) %0, ptr noundef nonnull align 8 dereferenceable(56) %1) unnamed_addr #0 comdat align 2 {
  %3 = alloca ptr, align 8
  %4 = alloca ptr, align 8
  store ptr %0, ptr %3, align 8
  store ptr %1, ptr %4, align 8
  %5 = load ptr, ptr %3, align 8
  %6 = load ptr, ptr %4, align 8
  call void @_ZN3gmx14UserInputErrorC2ERKNS_20ExceptionInitializerE(ptr noundef nonnull align 8 dereferenceable(24) %5, ptr noundef nonnull align 8 dereferenceable(56) %6)
  store ptr getelementptr inbounds inrange(-16, 32) ({ [6 x ptr] }, ptr @_ZTVN3gmx22InconsistentInputErrorE, i32 0, i32 0, i32 2), ptr %5, align 8
  ret void
}

; Function Attrs: mustprogress nounwind uwtable
define linkonce_odr noundef zeroext i1 @_ZNK3gmx27SelectionTopologyProperties6hasAnyEv(ptr noundef nonnull align 1 dereferenceable(2) %0) #3 comdat align 2 {
  %2 = alloca ptr, align 8
  store ptr %0, ptr %2, align 8
  %3 = load ptr, ptr %2, align 8
  %4 = getelementptr inbounds %"struct.gmx::SelectionTopologyProperties", ptr %3, i32 0, i32 0
  %5 = load i8, ptr %4, align 1
  %6 = trunc i8 %5 to i1
  br i1 %6, label %11, label %7

7:                                                ; preds = %1
  %8 = getelementptr inbounds %"struct.gmx::SelectionTopologyProperties", ptr %3, i32 0, i32 1
  %9 = load i8, ptr %8, align 1
  %10 = trunc i8 %9 to i1
  br label %11

11:                                               ; preds = %7, %1
  %12 = phi i1 [ true, %1 ], [ %10, %7 ]
  ret i1 %12
}

; Function Attrs: mustprogress uwtable
define internal void @_ZN3gmx12_GLOBAL__N_123checkTopologyPropertiesEPK10gmx_mtop_tRKNS_27SelectionTopologyPropertiesE(ptr noundef %0, ptr noundef nonnull align 1 dereferenceable(2) %1) #0 personality ptr @__gxx_personality_v0 {
  %3 = alloca ptr, align 8
  %4 = alloca ptr, align 8
  %5 = alloca %"class.gmx::InconsistentInputError", align 8
  %6 = alloca %"class.gmx::ExceptionInitializer", align 8
  %7 = alloca ptr, align 8
  %8 = alloca i32, align 4
  %9 = alloca %"class.gmx::ExceptionInfo", align 8
  %10 = alloca %"struct.gmx::ThrowLocation", align 8
  %11 = alloca i1, align 1
  %12 = alloca %"class.gmx::InconsistentInputError", align 8
  %13 = alloca %"class.gmx::ExceptionInitializer", align 8
  %14 = alloca %"class.gmx::ExceptionInfo", align 8
  %15 = alloca %"struct.gmx::ThrowLocation", align 8
  %16 = alloca i1, align 1
  store ptr %0, ptr %3, align 8
  store ptr %1, ptr %4, align 8
  %17 = load ptr, ptr %3, align 8
  %18 = icmp eq ptr %17, null
  br i1 %18, label %19, label %52

19:                                               ; preds = %2
  %20 = load ptr, ptr %4, align 8
  %21 = call noundef zeroext i1 @_ZNK3gmx27SelectionTopologyProperties6hasAnyEv(ptr noundef nonnull align 1 dereferenceable(2) %20)
  br i1 %21, label %22, label %51

22:                                               ; preds = %19
  store i1 true, ptr %11, align 1
  %23 = call ptr @__cxa_allocate_exception(i64 24) #14
  invoke void @_ZN3gmx20ExceptionInitializerC2EPKc(ptr noundef nonnull align 8 dereferenceable(56) %6, ptr noundef @.str.24)
          to label %24 unwind label %29

24:                                               ; preds = %22
  invoke void @_ZN3gmx22InconsistentInputErrorC2ERKNS_20ExceptionInitializerE(ptr noundef nonnull align 8 dereferenceable(24) %5, ptr noundef nonnull align 8 dereferenceable(56) %6)
          to label %25 unwind label %33

25:                                               ; preds = %24
  invoke void @_ZN3gmx13ThrowLocationC2EPKcS2_i(ptr noundef nonnull align 8 dereferenceable(20) %10, ptr noundef @__PRETTY_FUNCTION__._ZN3gmx12_GLOBAL__N_123checkTopologyPropertiesEPK10gmx_mtop_tRKNS_27SelectionTopologyPropertiesE, ptr noundef @.str.1, i32 noundef 448)
          to label %26 unwind label %37

26:                                               ; preds = %25
  invoke void @_ZN3gmx13ExceptionInfoINS_22ExceptionInfoLocation_ENS_13ThrowLocationEEC2ERKS2_(ptr noundef nonnull align 8 dereferenceable(32) %9, ptr noundef nonnull align 8 dereferenceable(20) %10)
          to label %27 unwind label %37

27:                                               ; preds = %26
  invoke void @_ZN3gmxlsINS_22InconsistentInputErrorENS_22ExceptionInfoLocation_ENS_13ThrowLocationEEENSt9enable_ifIXsr3std10is_base_ofINS_16GromacsExceptionET_EE5valueES6_E4typeES6_RKNS_13ExceptionInfoIT0_T1_EE(ptr dead_on_unwind writable sret(%"class.gmx::InconsistentInputError") align 8 %23, ptr noundef %5, ptr noundef nonnull align 8 dereferenceable(32) %9)
          to label %28 unwind label %41

28:                                               ; preds = %27
  store i1 false, ptr %11, align 1
  invoke void @__cxa_throw(ptr %23, ptr @_ZTIN3gmx22InconsistentInputErrorE, ptr @_ZN3gmx22InconsistentInputErrorD2Ev) #18
          to label %95 unwind label %41

29:                                               ; preds = %22
  %30 = landingpad { ptr, i32 }
          cleanup
  %31 = extractvalue { ptr, i32 } %30, 0
  store ptr %31, ptr %7, align 8
  %32 = extractvalue { ptr, i32 } %30, 1
  store i32 %32, ptr %8, align 4
  br label %47

33:                                               ; preds = %24
  %34 = landingpad { ptr, i32 }
          cleanup
  %35 = extractvalue { ptr, i32 } %34, 0
  store ptr %35, ptr %7, align 8
  %36 = extractvalue { ptr, i32 } %34, 1
  store i32 %36, ptr %8, align 4
  br label %46

37:                                               ; preds = %26, %25
  %38 = landingpad { ptr, i32 }
          cleanup
  %39 = extractvalue { ptr, i32 } %38, 0
  store ptr %39, ptr %7, align 8
  %40 = extractvalue { ptr, i32 } %38, 1
  store i32 %40, ptr %8, align 4
  br label %45

41:                                               ; preds = %28, %27
  %42 = landingpad { ptr, i32 }
          cleanup
  %43 = extractvalue { ptr, i32 } %42, 0
  store ptr %43, ptr %7, align 8
  %44 = extractvalue { ptr, i32 } %42, 1
  store i32 %44, ptr %8, align 4
  call void @_ZN3gmx13ExceptionInfoINS_22ExceptionInfoLocation_ENS_13ThrowLocationEED2Ev(ptr noundef nonnull align 8 dereferenceable(32) %9) #14
  br label %45

45:                                               ; preds = %41, %37
  call void @_ZN3gmx22InconsistentInputErrorD2Ev(ptr noundef nonnull align 8 dereferenceable(24) %5) #14
  br label %46

46:                                               ; preds = %45, %33
  call void @_ZN3gmx20ExceptionInitializerD2Ev(ptr noundef nonnull align 8 dereferenceable(56) %6) #14
  br label %47

47:                                               ; preds = %46, %29
  %48 = load i1, ptr %11, align 1
  br i1 %48, label %49, label %50

49:                                               ; preds = %47
  call void @__cxa_free_exception(ptr %23) #14
  br label %50

50:                                               ; preds = %49, %47
  br label %90

51:                                               ; preds = %19
  br label %89

52:                                               ; preds = %2
  %53 = load ptr, ptr %4, align 8
  %54 = getelementptr inbounds %"struct.gmx::SelectionTopologyProperties", ptr %53, i32 0, i32 1
  %55 = load i8, ptr %54, align 1
  %56 = trunc i8 %55 to i1
  br i1 %56, label %57, label %89

57:                                               ; preds = %52
  %58 = load ptr, ptr %3, align 8
  %59 = call noundef zeroext i1 @_Z19gmx_mtop_has_massesPK10gmx_mtop_t(ptr noundef %58)
  br i1 %59, label %89, label %60

60:                                               ; preds = %57
  store i1 true, ptr %16, align 1
  %61 = call ptr @__cxa_allocate_exception(i64 24) #14
  invoke void @_ZN3gmx20ExceptionInitializerC2EPKc(ptr noundef nonnull align 8 dereferenceable(56) %13, ptr noundef @.str.25)
          to label %62 unwind label %67

62:                                               ; preds = %60
  invoke void @_ZN3gmx22InconsistentInputErrorC2ERKNS_20ExceptionInitializerE(ptr noundef nonnull align 8 dereferenceable(24) %12, ptr noundef nonnull align 8 dereferenceable(56) %13)
          to label %63 unwind label %71

63:                                               ; preds = %62
  invoke void @_ZN3gmx13ThrowLocationC2EPKcS2_i(ptr noundef nonnull align 8 dereferenceable(20) %15, ptr noundef @__PRETTY_FUNCTION__._ZN3gmx12_GLOBAL__N_123checkTopologyPropertiesEPK10gmx_mtop_tRKNS_27SelectionTopologyPropertiesE, ptr noundef @.str.1, i32 noundef 455)
          to label %64 unwind label %75

64:                                               ; preds = %63
  invoke void @_ZN3gmx13ExceptionInfoINS_22ExceptionInfoLocation_ENS_13ThrowLocationEEC2ERKS2_(ptr noundef nonnull align 8 dereferenceable(32) %14, ptr noundef nonnull align 8 dereferenceable(20) %15)
          to label %65 unwind label %75

65:                                               ; preds = %64
  invoke void @_ZN3gmxlsINS_22InconsistentInputErrorENS_22ExceptionInfoLocation_ENS_13ThrowLocationEEENSt9enable_ifIXsr3std10is_base_ofINS_16GromacsExceptionET_EE5valueES6_E4typeES6_RKNS_13ExceptionInfoIT0_T1_EE(ptr dead_on_unwind writable sret(%"class.gmx::InconsistentInputError") align 8 %61, ptr noundef %12, ptr noundef nonnull align 8 dereferenceable(32) %14)
          to label %66 unwind label %79

66:                                               ; preds = %65
  store i1 false, ptr %16, align 1
  invoke void @__cxa_throw(ptr %61, ptr @_ZTIN3gmx22InconsistentInputErrorE, ptr @_ZN3gmx22InconsistentInputErrorD2Ev) #18
          to label %95 unwind label %79

67:                                               ; preds = %60
  %68 = landingpad { ptr, i32 }
          cleanup
  %69 = extractvalue { ptr, i32 } %68, 0
  store ptr %69, ptr %7, align 8
  %70 = extractvalue { ptr, i32 } %68, 1
  store i32 %70, ptr %8, align 4
  br label %85

71:                                               ; preds = %62
  %72 = landingpad { ptr, i32 }
          cleanup
  %73 = extractvalue { ptr, i32 } %72, 0
  store ptr %73, ptr %7, align 8
  %74 = extractvalue { ptr, i32 } %72, 1
  store i32 %74, ptr %8, align 4
  br label %84

75:                                               ; preds = %64, %63
  %76 = landingpad { ptr, i32 }
          cleanup
  %77 = extractvalue { ptr, i32 } %76, 0
  store ptr %77, ptr %7, align 8
  %78 = extractvalue { ptr, i32 } %76, 1
  store i32 %78, ptr %8, align 4
  br label %83

79:                                               ; preds = %66, %65
  %80 = landingpad { ptr, i32 }
          cleanup
  %81 = extractvalue { ptr, i32 } %80, 0
  store ptr %81, ptr %7, align 8
  %82 = extractvalue { ptr, i32 } %80, 1
  store i32 %82, ptr %8, align 4
  call void @_ZN3gmx13ExceptionInfoINS_22ExceptionInfoLocation_ENS_13ThrowLocationEED2Ev(ptr noundef nonnull align 8 dereferenceable(32) %14) #14
  br label %83

83:                                               ; preds = %79, %75
  call void @_ZN3gmx22InconsistentInputErrorD2Ev(ptr noundef nonnull align 8 dereferenceable(24) %12) #14
  br label %84

84:                                               ; preds = %83, %71
  call void @_ZN3gmx20ExceptionInitializerD2Ev(ptr noundef nonnull align 8 dereferenceable(56) %13) #14
  br label %85

85:                                               ; preds = %84, %67
  %86 = load i1, ptr %16, align 1
  br i1 %86, label %87, label %88

87:                                               ; preds = %85
  call void @__cxa_free_exception(ptr %61) #14
  br label %88

88:                                               ; preds = %87, %85
  br label %90

89:                                               ; preds = %57, %52, %51
  ret void

90:                                               ; preds = %88, %50
  %91 = load ptr, ptr %7, align 8
  %92 = load i32, ptr %8, align 4
  %93 = insertvalue { ptr, i32 } poison, ptr %91, 0
  %94 = insertvalue { ptr, i32 } %93, i32 %92, 1
  resume { ptr, i32 } %94

95:                                               ; preds = %66, %28
  unreachable
}