; Function Attrs: mustprogress uwtable
define internal fastcc void @_ZN3gmx12_GLOBAL__N_123checkTopologyPropertiesEPK10gmx_mtop_tRKNS_27SelectionTopologyPropertiesE(ptr noundef %0, i8 %.0.val, i8 %.1.val) unnamed_addr #0 personality ptr @__gxx_personality_v0 {
  %2 = alloca %"class.gmx::InconsistentInputError", align 8
  %3 = alloca %"class.gmx::ExceptionInitializer", align 8
  %4 = alloca %"class.gmx::ExceptionInfo", align 8
  %5 = alloca %"class.gmx::InconsistentInputError", align 8
  %6 = alloca %"class.gmx::ExceptionInitializer", align 8
  %7 = alloca %"class.gmx::ExceptionInfo", align 8
  %8 = icmp eq ptr %0, null
  br i1 %8, label %9, label %23

9:                                                ; preds = %1
  %10 = trunc i8 %.0.val to i1
  %11 = trunc i8 %.1.val to i1
  %12 = select i1 %10, i1 true, i1 %11
  br i1 %12, label %13, label %37

13:                                               ; preds = %9
  %14 = tail call ptr @__cxa_allocate_exception(i64 24) #22
  invoke void @_ZN3gmx20ExceptionInitializerC2EPKc(ptr noundef nonnull align 8 dereferenceable(56) %3, ptr noundef nonnull @.str.24)
          to label %15 unwind label %.thread

15:                                               ; preds = %13
  invoke void @_ZN3gmx16GromacsExceptionC2ERKNS_20ExceptionInitializerE(ptr noundef nonnull align 8 dereferenceable(24) %2, ptr noundef nonnull align 8 dereferenceable(56) %3)
          to label %16 unwind label %.thread8

16:                                               ; preds = %15
  store ptr getelementptr inbounds inrange(-16, 32) ({ [6 x ptr] }, ptr @_ZTVN3gmx22InconsistentInputErrorE, i64 0, i32 0, i64 2), ptr %2, align 8
  store ptr getelementptr inbounds inrange(-16, 16) ({ [4 x ptr] }, ptr @_ZTVN3gmx13ExceptionInfoINS_22ExceptionInfoLocation_ENS_13ThrowLocationEEE, i64 0, i32 0, i64 2), ptr %4, align 8
  %17 = getelementptr inbounds i8, ptr %4, i64 8
  store ptr @__PRETTY_FUNCTION__._ZN3gmx12_GLOBAL__N_123checkTopologyPropertiesEPK10gmx_mtop_tRKNS_27SelectionTopologyPropertiesE, ptr %17, align 8
  %.sroa.22.0..sroa_idx = getelementptr inbounds i8, ptr %4, i64 16
  store ptr @.str.1, ptr %.sroa.22.0..sroa_idx, align 8
  %.sroa.33.0..sroa_idx = getelementptr inbounds i8, ptr %4, i64 24
  store i32 448, ptr %.sroa.33.0..sroa_idx, align 8
  invoke void @_ZN3gmxlsINS_22InconsistentInputErrorENS_22ExceptionInfoLocation_ENS_13ThrowLocationEEENSt9enable_ifIXsr3std10is_base_ofINS_16GromacsExceptionET_EE5valueES6_E4typeES6_RKNS_13ExceptionInfoIT0_T1_EE(ptr dead_on_unwind writable sret(%"class.gmx::InconsistentInputError") align 8 %14, ptr noundef nonnull %2, ptr noundef nonnull align 8 dereferenceable(32) %4)
          to label %18 unwind label %21

18:                                               ; preds = %16
  invoke void @__cxa_throw(ptr %14, ptr nonnull @_ZTIN3gmx22InconsistentInputErrorE, ptr nonnull @_ZN3gmx22InconsistentInputErrorD2Ev) #26
          to label %39 unwind label %21

.thread:                                          ; preds = %13
  %19 = landingpad { ptr, i32 }
          cleanup
  br label %.sink.split

.thread8:                                         ; preds = %15
  %20 = landingpad { ptr, i32 }
          cleanup
  call void @_ZN3gmx20ExceptionInitializerD2Ev(ptr noundef nonnull align 8 dereferenceable(56) %3) #22
  br label %.sink.split

21:                                               ; preds = %16, %18
  %.07 = phi i1 [ false, %18 ], [ true, %16 ]
  %22 = landingpad { ptr, i32 }
          cleanup
  call void @_ZN3gmx8internal14IExceptionInfoD2Ev(ptr noundef nonnull align 8 dereferenceable(8) %4) #22
  call void @_ZN3gmx22InconsistentInputErrorD2Ev(ptr noundef nonnull align 8 dereferenceable(24) %2) #22
  call void @_ZN3gmx20ExceptionInitializerD2Ev(ptr noundef nonnull align 8 dereferenceable(56) %3) #22
  br i1 %.07, label %.sink.split, label %38

23:                                               ; preds = %1
  %24 = trunc i8 %.1.val to i1
  br i1 %24, label %25, label %37

25:                                               ; preds = %23
  %26 = tail call noundef zeroext i1 @_Z19gmx_mtop_has_massesPK10gmx_mtop_t(ptr noundef nonnull %0)
  br i1 %26, label %37, label %27

27:                                               ; preds = %25
  %28 = tail call ptr @__cxa_allocate_exception(i64 24) #22
  invoke void @_ZN3gmx20ExceptionInitializerC2EPKc(ptr noundef nonnull align 8 dereferenceable(56) %6, ptr noundef nonnull @.str.25)
          to label %29 unwind label %.thread11

29:                                               ; preds = %27
  invoke void @_ZN3gmx16GromacsExceptionC2ERKNS_20ExceptionInitializerE(ptr noundef nonnull align 8 dereferenceable(24) %5, ptr noundef nonnull align 8 dereferenceable(56) %6)
          to label %30 unwind label %.thread15

30:                                               ; preds = %29
  store ptr getelementptr inbounds inrange(-16, 32) ({ [6 x ptr] }, ptr @_ZTVN3gmx22InconsistentInputErrorE, i64 0, i32 0, i64 2), ptr %5, align 8
  store ptr getelementptr inbounds inrange(-16, 16) ({ [4 x ptr] }, ptr @_ZTVN3gmx13ExceptionInfoINS_22ExceptionInfoLocation_ENS_13ThrowLocationEEE, i64 0, i32 0, i64 2), ptr %7, align 8
  %31 = getelementptr inbounds i8, ptr %7, i64 8
  store ptr @__PRETTY_FUNCTION__._ZN3gmx12_GLOBAL__N_123checkTopologyPropertiesEPK10gmx_mtop_tRKNS_27SelectionTopologyPropertiesE, ptr %31, align 8
  %.sroa.2.0..sroa_idx = getelementptr inbounds i8, ptr %7, i64 16
  store ptr @.str.1, ptr %.sroa.2.0..sroa_idx, align 8
  %.sroa.3.0..sroa_idx = getelementptr inbounds i8, ptr %7, i64 24
  store i32 455, ptr %.sroa.3.0..sroa_idx, align 8
  invoke void @_ZN3gmxlsINS_22InconsistentInputErrorENS_22ExceptionInfoLocation_ENS_13ThrowLocationEEENSt9enable_ifIXsr3std10is_base_ofINS_16GromacsExceptionET_EE5valueES6_E4typeES6_RKNS_13ExceptionInfoIT0_T1_EE(ptr dead_on_unwind writable sret(%"class.gmx::InconsistentInputError") align 8 %28, ptr noundef nonnull %5, ptr noundef nonnull align 8 dereferenceable(32) %7)
          to label %32 unwind label %35

32:                                               ; preds = %30
  invoke void @__cxa_throw(ptr %28, ptr nonnull @_ZTIN3gmx22InconsistentInputErrorE, ptr nonnull @_ZN3gmx22InconsistentInputErrorD2Ev) #26
          to label %39 unwind label %35

.thread11:                                        ; preds = %27
  %33 = landingpad { ptr, i32 }
          cleanup
  br label %.sink.split

.thread15:                                        ; preds = %29
  %34 = landingpad { ptr, i32 }
          cleanup
  call void @_ZN3gmx20ExceptionInitializerD2Ev(ptr noundef nonnull align 8 dereferenceable(56) %6) #22
  br label %.sink.split

35:                                               ; preds = %30, %32
  %.0 = phi i1 [ false, %32 ], [ true, %30 ]
  %36 = landingpad { ptr, i32 }
          cleanup
  call void @_ZN3gmx8internal14IExceptionInfoD2Ev(ptr noundef nonnull align 8 dereferenceable(8) %7) #22
  call void @_ZN3gmx22InconsistentInputErrorD2Ev(ptr noundef nonnull align 8 dereferenceable(24) %5) #22
  call void @_ZN3gmx20ExceptionInitializerD2Ev(ptr noundef nonnull align 8 dereferenceable(56) %6) #22
  br i1 %.0, label %.sink.split, label %38

37:                                               ; preds = %9, %25, %23
  ret void

.sink.split:                                      ; preds = %35, %.thread11, %.thread15, %21, %.thread, %.thread8
  %.sink = phi ptr [ %14, %.thread8 ], [ %14, %.thread ], [ %14, %21 ], [ %28, %.thread15 ], [ %28, %.thread11 ], [ %28, %35 ]
  %.pn21.pn.pn.ph = phi { ptr, i32 } [ %20, %.thread8 ], [ %19, %.thread ], [ %22, %21 ], [ %34, %.thread15 ], [ %33, %.thread11 ], [ %36, %35 ]
  call void @__cxa_free_exception(ptr %.sink) #22
  br label %38

38:                                               ; preds = %.sink.split, %35, %21
  %.pn21.pn.pn = phi { ptr, i32 } [ %22, %21 ], [ %36, %35 ], [ %.pn21.pn.pn.ph, %.sink.split ]
  resume { ptr, i32 } %.pn21.pn.pn

39:                                               ; preds = %32, %18
  unreachable
}